target datalayout = "e-m:e-p270:32:32-p271:32:32-p272:64:64-i64:64-i128:128-f80:128-n8:16:32:64-S128"
target triple = "x86_64-pc-linux-gnu"

; Function Attrs: nounwind uwtable
define internal void @pad_block_int32(ptr noundef %0, i64 noundef %1, i64 noundef %2) #0 {
  %4 = alloca ptr, align 8
  %5 = alloca i64, align 8
  %6 = alloca i64, align 8
  store ptr %0, ptr %4, align 8, !tbaa !8
  store i64 %1, ptr %5, align 8, !tbaa !24
  store i64 %2, ptr %6, align 8, !tbaa !24
  %7 = load i64, ptr %5, align 8, !tbaa !24
  switch i64 %7, label %43 [
    i64 0, label %8
    i64 1, label %13
    i64 2, label %23
    i64 3, label %33
  ]

8:                                                ; preds = %3
  %9 = load ptr, ptr %4, align 8, !tbaa !8
  %10 = load i64, ptr %6, align 8, !tbaa !24
  %11 = mul nsw i64 0, %10
  %12 = getelementptr inbounds i32, ptr %9, i64 %11
  store i32 0, ptr %12, align 4, !tbaa !10
  br label %13

13:                                               ; preds = %3, %8
  %14 = load ptr, ptr %4, align 8, !tbaa !8
  %15 = load i64, ptr %6, align 8, !tbaa !24
  %16 = mul nsw i64 0, %15
  %17 = getelementptr inbounds i32, ptr %14, i64 %16
  %18 = load i32, ptr %17, align 4, !tbaa !10
  %19 = load ptr, ptr %4, align 8, !tbaa !8
  %20 = load i64, ptr %6, align 8, !tbaa !24
  %21 = mul nsw i64 1, %20
  %22 = getelementptr inbounds i32, ptr %19, i64 %21
  store i32 %18, ptr %22, align 4, !tbaa !10
  br label %23

23:                                               ; preds = %3, %13
  %24 = load ptr, ptr %4, align 8, !tbaa !8
  %25 = load i64, ptr %6, align 8, !tbaa !24
  %26 = mul nsw i64 1, %25
  %27 = getelementptr inbounds i32, ptr %24, i64 %26
  %28 = load i32, ptr %27, align 4, !tbaa !10
  %29 = load ptr, ptr %4, align 8, !tbaa !8
  %30 = load i64, ptr %6, align 8, !tbaa !24
  %31 = mul nsw i64 2, %30
  %32 = getelementptr inbounds i32, ptr %29, i64 %31
  store i32 %28, ptr %32, align 4, !tbaa !10
  br label %33

33:                                               ; preds = %3, %23
  %34 = load ptr, ptr %4, align 8, !tbaa !8
  %35 = load i64, ptr %6, align 8, !tbaa !24
  %36 = mul nsw i64 0, %35
  %37 = getelementptr inbounds i32, ptr %34, i64 %36
  %38 = load i32, ptr %37, align 4, !tbaa !10
  %39 = load ptr, ptr %4, align 8, !tbaa !8
  %40 = load i64, ptr %6, align 8, !tbaa !24
  %41 = mul nsw i64 3, %40
  %42 = getelementptr inbounds i32, ptr %39, i64 %41
  store i32 %38, ptr %42, align 4, !tbaa !10
  br label %43

43:                                               ; preds = %3, %33
  br label %44

44:                                               ; preds = %43
  ret void
}

; Function Attrs: nounwind uwtable
define internal void @gather_partial_int32_1(ptr noundef %0, ptr noundef %1, i64 noundef %2, i64 noundef %3) #0 {
  %5 = alloca ptr, align 8
  %6 = alloca ptr, align 8
  %7 = alloca i64, align 8
  %8 = alloca i64, align 8
  %9 = alloca i64, align 8
  store ptr %0, ptr %5, align 8, !tbaa !8
  store ptr %1, ptr %6, align 8, !tbaa !8
  store i64 %2, ptr %7, align 8, !tbaa !24
  store i64 %3, ptr %8, align 8, !tbaa !24
  call void @llvm.lifetime.start.p0(i64 8, ptr %9) #4
  store i64 0, ptr %9, align 8, !tbaa !24
  br label %10

10:                                               ; preds = %20, %4
  %11 = load i64, ptr %9, align 8, !tbaa !24
  %12 = load i64, ptr %7, align 8, !tbaa !24
  %13 = icmp ult i64 %11, %12
  br i1 %13, label %14, label %26

14:                                               ; preds = %10
  %15 = load ptr, ptr %6, align 8, !tbaa !8
  %16 = load i32, ptr %15, align 4, !tbaa !10
  %17 = load ptr, ptr %5, align 8, !tbaa !8
  %18 = load i64, ptr %9, align 8, !tbaa !24
  %19 = getelementptr inbounds nuw i32, ptr %17, i64 %18
  store i32 %16, ptr %19, align 4, !tbaa !10
  br label %20

20:                                               ; preds = %14
  %21 = load i64, ptr %9, align 8, !tbaa !24
  %22 = add i64 %21, 1
  store i64 %22, ptr %9, align 8, !tbaa !24
  %23 = load i64, ptr %8, align 8, !tbaa !24
  %24 = load ptr, ptr %6, align 8, !tbaa !8
  %25 = getelementptr inbounds i32, ptr %24, i64 %23
  store ptr %25, ptr %6, align 8, !tbaa !8
  br label %10

26:                                               ; preds = %10
  %27 = load ptr, ptr %5, align 8, !tbaa !8
  %28 = load i64, ptr %7, align 8, !tbaa !24
  call void @pad_block_int32(ptr noundef %27, i64 noundef %28, i64 noundef 1)
  call void @llvm.lifetime.end.p0(i64 8, ptr %9) #4
  ret void
}

; Function Attrs: nounwind uwtable
define i64 @zfp_encode_partial_block_strided_int32_1(ptr noundef %0, ptr noundef %1, i64 noundef %2, i64 noundef %3) #0 {
  %5 = alloca ptr, align 8
  %6 = alloca ptr, align 8
  %7 = alloca i64, align 8
  %8 = alloca i64, align 8
  %9 = alloca [4 x i32], align 256
  store ptr %0, ptr %5, align 8, !tbaa !4
  store ptr %1, ptr %6, align 8, !tbaa !8
  store i64 %2, ptr %7, align 8, !tbaa !24
  store i64 %3, ptr %8, align 8, !tbaa !24
  call void @llvm.lifetime.start.p0(i64 16, ptr %9) #4
  %10 = getelementptr inbounds [4 x i32], ptr %9, i64 0, i64 0
  %11 = load ptr, ptr %6, align 8, !tbaa !8
  %12 = load i64, ptr %7, align 8, !tbaa !24
  %13 = load i64, ptr %8, align 8, !tbaa !24
  call void @gather_partial_int32_1(ptr noundef %10, ptr noundef %11, i64 noundef %12, i64 noundef %13)
  %14 = load ptr, ptr %5, align 8, !tbaa !4
  %15 = getelementptr inbounds [4 x i32], ptr %9, i64 0, i64 0
  %16 = call i64 @zfp_encode_block_int32_1(ptr noundef %14, ptr noundef %15)
  call void @llvm.lifetime.end.p0(i64 16, ptr %9) #4
  ret i64 %16
}